; ModuleID = '29/337.c'
source_filename = "29/337.c"
target datalayout = "e-m:e-p270:32:32-p271:32:32-p272:64:64-i64:64-f80:128-n8:16:32:64-S128"
target triple = "x86_64-pc-linux-gnu"

@.str = private unnamed_addr constant [3 x i8] c"%d\00", align 1
@.str.1 = private unnamed_addr constant [7 x i8] c"2.000\0A\00", align 1
@.str.2 = private unnamed_addr constant [6 x i8] c"%.3f\0A\00", align 1

; Function Attrs: noinline nounwind uwtable
define dso_local i32 @main() #0 {
  %1 = alloca i32, align 4
  %2 = alloca i32, align 4
  %3 = alloca i32, align 4
  %4 = alloca i32, align 4
  %5 = alloca i32, align 4
  %6 = alloca i32, align 4
  %7 = alloca i32, align 4
  %8 = alloca i32, align 4
  %9 = alloca i32, align 4
  %10 = alloca i32, align 4
  %11 = alloca float, align 4
  %12 = alloca i32, align 4
  store i32 0, i32* %1, align 4
  %13 = call i32 (i8*, ...) @__isoc99_scanf(i8* getelementptr inbounds ([3 x i8], [3 x i8]* @.str, i64 0, i64 0), i32* %2)
  store i32 0, i32* %3, align 4
  br label %14

14:                                               ; preds = %54, %0
  %15 = load i32, i32* %3, align 4
  %16 = load i32, i32* %2, align 4
  %17 = icmp slt i32 %15, %16
  br i1 %17, label %18, label %57

18:                                               ; preds = %14
  %19 = call i32 (i8*, ...) @__isoc99_scanf(i8* getelementptr inbounds ([3 x i8], [3 x i8]* @.str, i64 0, i64 0), i32* %4)
  %20 = load i32, i32* %4, align 4
  %21 = icmp eq i32 %20, 1
  br i1 %21, label %22, label %24

22:                                               ; preds = %18
  %23 = call i32 (i8*, ...) @printf(i8* getelementptr inbounds ([7 x i8], [7 x i8]* @.str.1, i64 0, i64 0))
  br label %54

24:                                               ; preds = %18
  store i32 2, i32* %5, align 4
  store i32 1, i32* %6, align 4
  store i32 3, i32* %7, align 4
  store i32 2, i32* %8, align 4
  store float 3.500000e+00, float* %11, align 4
  store i32 2, i32* %12, align 4
  br label %25

25:                                               ; preds = %47, %24
  %26 = load i32, i32* %12, align 4
  %27 = load i32, i32* %4, align 4
  %28 = icmp slt i32 %26, %27
  br i1 %28, label %29, label %50

29:                                               ; preds = %25
  %30 = load i32, i32* %7, align 4
  store i32 %30, i32* %9, align 4
  %31 = load i32, i32* %8, align 4
  store i32 %31, i32* %10, align 4
  %32 = load i32, i32* %5, align 4
  %33 = load i32, i32* %7, align 4
  %34 = add nsw i32 %32, %33
  store i32 %34, i32* %7, align 4
  %35 = load i32, i32* %6, align 4
  %36 = load i32, i32* %8, align 4
  %37 = add nsw i32 %35, %36
  store i32 %37, i32* %8, align 4
  %38 = load i32, i32* %9, align 4
  store i32 %38, i32* %5, align 4
  %39 = load i32, i32* %10, align 4
  store i32 %39, i32* %6, align 4
  %40 = load float, float* %11, align 4
  %41 = load i32, i32* %7, align 4
  %42 = sitofp i32 %41 to float
  %43 = load i32, i32* %8, align 4
  %44 = sitofp i32 %43 to float
  %45 = fdiv float %42, %44
  %46 = fadd float %40, %45
  store float %46, float* %11, align 4
  br label %47

47:                                               ; preds = %29
  %48 = load i32, i32* %12, align 4
  %49 = add nsw i32 %48, 1
  store i32 %49, i32* %12, align 4
  br label %25

50:                                               ; preds = %25
  %51 = load float, float* %11, align 4
  %52 = fpext float %51 to double
  %53 = call i32 (i8*, ...) @printf(i8* getelementptr inbounds ([6 x i8], [6 x i8]* @.str.2, i64 0, i64 0), double %52)
  br label %54

54:                                               ; preds = %50, %22
  %55 = load i32, i32* %3, align 4
  %56 = add nsw i32 %55, 1
  store i32 %56, i32* %3, align 4
  br label %14

57:                                               ; preds = %14
  ret i32 0
}

declare dso_local i32 @__isoc99_scanf(i8*, ...) #1

declare dso_local i32 @printf(i8*, ...) #1


!llvm.module.flags = !{!0}
!llvm.ident = !{!1}

!0 = !{i32 1, !"wchar_size", i32 4}
!1 = !{!"clang version 10.0.0-4ubuntu1 "}
